target datalayout = "e-m:e-p270:32:32-p271:32:32-p272:64:64-i64:64-i128:128-f80:128-n8:16:32:64-S128"
target triple = "x86_64-pc-linux-gnu"

%struct.__va_list_tag = type { i32, i32, ptr, ptr }

@hf_mswsp_ccategspec_type = internal global i32 0, align 4
@ett_CCategSpec = internal global i32 0, align 4
@.str.1334 = private unnamed_addr constant [9 x i8] c" Type %u\00", align 1
@.str.1335 = private unnamed_addr constant [6 x i8] c"CSort\00", align 1
@.str.1336 = private unnamed_addr constant [16 x i8] c"CRangeCategSpec\00", align 1

; Function Attrs: null_pointer_is_valid sspstrong uwtable
define internal i32 @parse_CCategSpec(ptr noundef %0, ptr noundef %1, i32 noundef %2, ptr noundef %3, ptr noundef %4, ptr noundef %5, ...) #0 {
  %7 = alloca ptr, align 8
  %8 = alloca ptr, align 8
  %9 = alloca i32, align 4
  %10 = alloca ptr, align 8
  %11 = alloca ptr, align 8
  %12 = alloca ptr, align 8
  %13 = alloca ptr, align 8
  %14 = alloca ptr, align 8
  %15 = alloca [1 x %struct.__va_list_tag], align 16
  %16 = alloca i32, align 4
  %17 = alloca ptr, align 8
  store ptr %0, ptr %7, align 8
  store ptr %1, ptr %8, align 8
  store i32 %2, ptr %9, align 4
  store ptr %3, ptr %10, align 8
  store ptr %4, ptr %11, align 8
  store ptr %5, ptr %12, align 8
  call void @llvm.lifetime.start.p0(i64 8, ptr %13) #11
  call void @llvm.lifetime.start.p0(i64 8, ptr %14) #11
  call void @llvm.lifetime.start.p0(i64 24, ptr %15) #11
  call void @llvm.lifetime.start.p0(i64 4, ptr %16) #11
  call void @llvm.lifetime.start.p0(i64 8, ptr %17) #11
  %18 = getelementptr inbounds [1 x %struct.__va_list_tag], ptr %15, i64 0, i64 0
  call void @llvm.va_start.p0(ptr %18)
  %19 = call ptr @wmem_packet_scope()
  %20 = load ptr, ptr %12, align 8
  %21 = getelementptr inbounds [1 x %struct.__va_list_tag], ptr %15, i64 0, i64 0
  %22 = call noalias ptr @wmem_strdup_vprintf(ptr noundef %19, ptr noundef %20, ptr noundef %21)
  store ptr %22, ptr %17, align 8
  %23 = getelementptr inbounds [1 x %struct.__va_list_tag], ptr %15, i64 0, i64 0
  call void @llvm.va_end.p0(ptr %23)
  %24 = load ptr, ptr %10, align 8
  %25 = load ptr, ptr %7, align 8
  %26 = load i32, ptr %9, align 4
  %27 = load i32, ptr @ett_CCategSpec, align 4
  %28 = load ptr, ptr %17, align 8
  %29 = call ptr @proto_tree_add_subtree(ptr noundef %24, ptr noundef %25, i32 noundef %26, i32 noundef 0, i32 noundef %27, ptr noundef %13, ptr noundef %28)
  store ptr %29, ptr %14, align 8
  %30 = load ptr, ptr %7, align 8
  %31 = load i32, ptr %9, align 4
  %32 = call i32 @tvb_get_letohl(ptr noundef %30, i32 noundef %31)
  store i32 %32, ptr %16, align 4
  %33 = load ptr, ptr %14, align 8
  %34 = load i32, ptr @hf_mswsp_ccategspec_type, align 4
  %35 = load ptr, ptr %7, align 8
  %36 = load i32, ptr %9, align 4
  %37 = load i32, ptr %16, align 4
  %38 = call ptr @proto_tree_add_uint(ptr noundef %33, i32 noundef %34, ptr noundef %35, i32 noundef %36, i32 noundef 4, i32 noundef %37)
  %39 = load ptr, ptr %13, align 8
  %40 = load i32, ptr %16, align 4
  call void (ptr, ptr, ...) @proto_item_append_text(ptr noundef %39, ptr noundef @.str.1334, i32 noundef %40)
  %41 = load i32, ptr %9, align 4
  %42 = add i32 %41, 4
  store i32 %42, ptr %9, align 4
  %43 = load ptr, ptr %7, align 8
  %44 = load i32, ptr %9, align 4
  %45 = load ptr, ptr %14, align 8
  %46 = load ptr, ptr %11, align 8
  %47 = call i32 (ptr, i32, ptr, ptr, ptr, ...) @parse_CSort(ptr noundef %43, i32 noundef %44, ptr noundef %45, ptr noundef %46, ptr noundef @.str.1335)
  store i32 %47, ptr %9, align 4
  %48 = load i32, ptr %16, align 4
  %49 = icmp ne i32 %48, 0
  br i1 %49, label %50, label %57

50:                                               ; preds = %6
  %51 = load ptr, ptr %7, align 8
  %52 = load ptr, ptr %8, align 8
  %53 = load i32, ptr %9, align 4
  %54 = load ptr, ptr %14, align 8
  %55 = load ptr, ptr %11, align 8
  %56 = call i32 (ptr, ptr, i32, ptr, ptr, ptr, ...) @parse_CRangeCategSpec(ptr noundef %51, ptr noundef %52, i32 noundef %53, ptr noundef %54, ptr noundef %55, ptr noundef @.str.1336)
  store i32 %56, ptr %9, align 4
  br label %57

57:                                               ; preds = %50, %6
  %58 = load ptr, ptr %13, align 8
  %59 = load ptr, ptr %7, align 8
  %60 = load i32, ptr %9, align 4
  call void @proto_item_set_end(ptr noundef %58, ptr noundef %59, i32 noundef %60)
  %61 = load i32, ptr %9, align 4
  call void @llvm.lifetime.end.p0(i64 8, ptr %17) #11
  call void @llvm.lifetime.end.p0(i64 4, ptr %16) #11
  call void @llvm.lifetime.end.p0(i64 24, ptr %15) #11
  call void @llvm.lifetime.end.p0(i64 8, ptr %14) #11
  call void @llvm.lifetime.end.p0(i64 8, ptr %13) #11
  ret i32 %61
}