; Function Attrs: null_pointer_is_valid sspstrong uwtable
define internal noundef i32 @parse_CCategSpec(ptr noundef %0, ptr noundef %1, i32 noundef %2, ptr noundef %3, ptr noundef %4, ptr readnone captures(none) %5, ...) unnamed_addr #0 {
  %7 = alloca ptr, align 8
  %8 = alloca [1 x %struct.__va_list_tag], align 16
  call void @llvm.lifetime.start.p0(i64 8, ptr nonnull %7) #11
  call void @llvm.lifetime.start.p0(i64 24, ptr nonnull %8) #11
  call void @llvm.va_start.p0(ptr nonnull %8)
  %9 = call ptr @wmem_packet_scope()
  %10 = call noalias ptr @wmem_strdup_vprintf(ptr noundef %9, ptr noundef nonnull @.str.1330, ptr noundef nonnull %8)
  call void @llvm.va_end.p0(ptr nonnull %8)
  %11 = load i32, ptr @ett_CCategSpec, align 4
  %12 = call ptr @proto_tree_add_subtree(ptr noundef %3, ptr noundef %0, i32 noundef %2, i32 noundef 0, i32 noundef %11, ptr noundef nonnull %7, ptr noundef %10)
  %13 = call i32 @tvb_get_letohl(ptr noundef %0, i32 noundef %2)
  %14 = load i32, ptr @hf_mswsp_ccategspec_type, align 4
  %15 = call ptr @proto_tree_add_uint(ptr noundef %12, i32 noundef %14, ptr noundef %0, i32 noundef %2, i32 noundef 4, i32 noundef %13)
  %16 = load ptr, ptr %7, align 8
  call void (ptr, ptr, ...) @proto_item_append_text(ptr noundef %16, ptr noundef nonnull @.str.1334, i32 noundef %13)
  %17 = add i32 %2, 4
  %18 = call i32 (ptr, i32, ptr, ptr, ptr, ...) @parse_CSort(ptr noundef %0, i32 noundef %17, ptr noundef %12, ptr poison, ptr noundef nonnull @.str.1335)
  %.not = icmp eq i32 %13, 0
  br i1 %.not, label %21, label %19

19:                                               ; preds = %6
  %20 = call i32 (ptr, ptr, i32, ptr, ptr, ptr, ...) @parse_CRangeCategSpec(ptr noundef %0, ptr noundef %1, i32 noundef %18, ptr noundef %12, ptr noundef %4, ptr nonnull poison)
  br label %21

21:                                               ; preds = %19, %6
  %.0 = phi i32 [ %20, %19 ], [ %18, %6 ]
  %22 = load ptr, ptr %7, align 8
  call void @proto_item_set_end(ptr noundef %22, ptr noundef %0, i32 noundef %.0)
  call void @llvm.lifetime.end.p0(i64 24, ptr nonnull %8) #11
  call void @llvm.lifetime.end.p0(i64 8, ptr nonnull %7) #11
  ret i32 %.0
}